
heap_vs_stack_fairness:     file format elf64-littleaarch64


Disassembly of section .init:

0000000000000790 <_init>:
 790:	a9bf7bfd 	stp	x29, x30, [sp, #-16]!
 794:	910003fd 	mov	x29, sp
 798:	a8c17bfd 	ldp	x29, x30, [sp], #16
 79c:	d65f03c0 	ret

Disassembly of section .plt:

00000000000007a0 <.plt>:
 7a0:	a9bf7bf0 	stp	x16, x30, [sp, #-16]!
 7a4:	f00000f0 	adrp	x16, 1f000 <__FRAME_END__+0x1d140>
 7a8:	f947aa11 	ldr	x17, [x16, #3920]
 7ac:	913d4210 	add	x16, x16, #0xf50
 7b0:	d61f0220 	br	x17
 7b4:	d503201f 	nop
 7b8:	d503201f 	nop
 7bc:	d503201f 	nop

00000000000007c0 <putchar@plt>:
 7c0:	f00000f0 	adrp	x16, 1f000 <__FRAME_END__+0x1d140>
 7c4:	f947ae11 	ldr	x17, [x16, #3928]
 7c8:	913d6210 	add	x16, x16, #0xf58
 7cc:	d61f0220 	br	x17

00000000000007d0 <clock_gettime@plt>:
 7d0:	f00000f0 	adrp	x16, 1f000 <__FRAME_END__+0x1d140>
 7d4:	f947b211 	ldr	x17, [x16, #3936]
 7d8:	913d8210 	add	x16, x16, #0xf60
 7dc:	d61f0220 	br	x17

00000000000007e0 <printf@plt>:
 7e0:	f00000f0 	adrp	x16, 1f000 <__FRAME_END__+0x1d140>
 7e4:	f947b611 	ldr	x17, [x16, #3944]
 7e8:	913da210 	add	x16, x16, #0xf68
 7ec:	d61f0220 	br	x17

00000000000007f0 <puts@plt>:
 7f0:	f00000f0 	adrp	x16, 1f000 <__FRAME_END__+0x1d140>
 7f4:	f947ba11 	ldr	x17, [x16, #3952]
 7f8:	913dc210 	add	x16, x16, #0xf70
 7fc:	d61f0220 	br	x17

0000000000000800 <__cxa_finalize@plt>:
 800:	f00000f0 	adrp	x16, 1f000 <__FRAME_END__+0x1d140>
 804:	f947be11 	ldr	x17, [x16, #3960]
 808:	913de210 	add	x16, x16, #0xf78
 80c:	d61f0220 	br	x17

0000000000000810 <malloc@plt>:
 810:	f00000f0 	adrp	x16, 1f000 <__FRAME_END__+0x1d140>
 814:	f947c211 	ldr	x17, [x16, #3968]
 818:	913e0210 	add	x16, x16, #0xf80
 81c:	d61f0220 	br	x17

0000000000000820 <__stack_chk_fail@plt>:
 820:	f00000f0 	adrp	x16, 1f000 <__FRAME_END__+0x1d140>
 824:	f947c611 	ldr	x17, [x16, #3976]
 828:	913e2210 	add	x16, x16, #0xf88
 82c:	d61f0220 	br	x17

0000000000000830 <__deregister_frame_info@plt>:
 830:	f00000f0 	adrp	x16, 1f000 <__FRAME_END__+0x1d140>
 834:	f947ca11 	ldr	x17, [x16, #3984]
 838:	913e4210 	add	x16, x16, #0xf90
 83c:	d61f0220 	br	x17

0000000000000840 <__libc_start_main@plt>:
 840:	f00000f0 	adrp	x16, 1f000 <__FRAME_END__+0x1d140>
 844:	f947ce11 	ldr	x17, [x16, #3992]
 848:	913e6210 	add	x16, x16, #0xf98
 84c:	d61f0220 	br	x17

0000000000000850 <__register_frame_info@plt>:
 850:	f00000f0 	adrp	x16, 1f000 <__FRAME_END__+0x1d140>
 854:	f947d211 	ldr	x17, [x16, #4000]
 858:	913e8210 	add	x16, x16, #0xfa0
 85c:	d61f0220 	br	x17

0000000000000860 <free@plt>:
 860:	f00000f0 	adrp	x16, 1f000 <__FRAME_END__+0x1d140>
 864:	f947d611 	ldr	x17, [x16, #4008]
 868:	913ea210 	add	x16, x16, #0xfa8
 86c:	d61f0220 	br	x17

Disassembly of section .text:

0000000000000880 <main>:
     880:	a9bd7bfd 	stp	x29, x30, [sp, #-48]!
     884:	910003fd 	mov	x29, sp
     888:	a90153f3 	stp	x19, x20, [sp, #16]
     88c:	b0000013 	adrp	x19, 1000 <test3_heap_large_object+0xa0>
     890:	91178260 	add	x0, x19, #0x5e0
     894:	f90013f5 	str	x21, [sp, #32]
     898:	97ffffd6 	bl	7f0 <puts@plt>
     89c:	b0000000 	adrp	x0, 1000 <test3_heap_large_object+0xa0>
     8a0:	91182000 	add	x0, x0, #0x608
     8a4:	97ffffd3 	bl	7f0 <puts@plt>
     8a8:	b0000014 	adrp	x20, 1000 <test3_heap_large_object+0xa0>
     8ac:	91178260 	add	x0, x19, #0x5e0
     8b0:	97ffffd0 	bl	7f0 <puts@plt>
     8b4:	b0000000 	adrp	x0, 1000 <test3_heap_large_object+0xa0>
     8b8:	9118c000 	add	x0, x0, #0x630
     8bc:	97ffffcd 	bl	7f0 <puts@plt>
     8c0:	90000015 	adrp	x21, 0 <_init-0x790>
     8c4:	52884805 	mov	w5, #0x4240                	// #16960
     8c8:	912f82a2 	add	x2, x21, #0xbe0
     8cc:	911a4281 	add	x1, x20, #0x690
     8d0:	72a001e5 	movk	w5, #0xf, lsl #16
     8d4:	90000004 	adrp	x4, 0 <_init-0x790>
     8d8:	b0000003 	adrp	x3, 1000 <test3_heap_large_object+0xa0>
     8dc:	91361084 	add	x4, x4, #0xd84
     8e0:	9119e063 	add	x3, x3, #0x678
     8e4:	b0000000 	adrp	x0, 1000 <test3_heap_large_object+0xa0>
     8e8:	911aa000 	add	x0, x0, #0x6a8
     8ec:	940002a5 	bl	1380 <run_test>
     8f0:	52884805 	mov	w5, #0x4240                	// #16960
     8f4:	90000004 	adrp	x4, 0 <_init-0x790>
     8f8:	72a001e5 	movk	w5, #0xf, lsl #16
     8fc:	9139b084 	add	x4, x4, #0xe6c
     900:	b0000003 	adrp	x3, 1000 <test3_heap_large_object+0xa0>
     904:	b0000002 	adrp	x2, 1000 <test3_heap_large_object+0xa0>
     908:	911b8063 	add	x3, x3, #0x6e0
     90c:	91080042 	add	x2, x2, #0x200
     910:	b0000001 	adrp	x1, 1000 <test3_heap_large_object+0xa0>
     914:	b0000000 	adrp	x0, 1000 <test3_heap_large_object+0xa0>
     918:	911c2021 	add	x1, x1, #0x708
     91c:	911ca000 	add	x0, x0, #0x728
     920:	94000298 	bl	1380 <run_test>
     924:	52800c85 	mov	w5, #0x64                  	// #100
     928:	90000004 	adrp	x4, 0 <_init-0x790>
     92c:	b0000003 	adrp	x3, 1000 <test3_heap_large_object+0xa0>
     930:	913d8084 	add	x4, x4, #0xf60
     934:	911d6063 	add	x3, x3, #0x758
     938:	90000002 	adrp	x2, 0 <_init-0x790>
     93c:	b0000001 	adrp	x1, 1000 <test3_heap_large_object+0xa0>
     940:	9132b042 	add	x2, x2, #0xcac
     944:	911de021 	add	x1, x1, #0x778
     948:	b0000000 	adrp	x0, 1000 <test3_heap_large_object+0xa0>
     94c:	911e8000 	add	x0, x0, #0x7a0
     950:	9400028c 	bl	1380 <run_test>
     954:	912f82a2 	add	x2, x21, #0xbe0
     958:	911a4281 	add	x1, x20, #0x690
     95c:	52884805 	mov	w5, #0x4240                	// #16960
     960:	b0000004 	adrp	x4, 1000 <test3_heap_large_object+0xa0>
     964:	b0000003 	adrp	x3, 1000 <test3_heap_large_object+0xa0>
     968:	91010084 	add	x4, x4, #0x40
     96c:	911f2063 	add	x3, x3, #0x7c8
     970:	72a001e5 	movk	w5, #0xf, lsl #16
     974:	b0000000 	adrp	x0, 1000 <test3_heap_large_object+0xa0>
     978:	911fa000 	add	x0, x0, #0x7e8
     97c:	94000281 	bl	1380 <run_test>
     980:	b0000000 	adrp	x0, 1000 <test3_heap_large_object+0xa0>
     984:	91204000 	add	x0, x0, #0x810
     988:	97ffff9a 	bl	7f0 <puts@plt>
     98c:	b0000000 	adrp	x0, 1000 <test3_heap_large_object+0xa0>
     990:	9120e000 	add	x0, x0, #0x838
     994:	97ffff97 	bl	7f0 <puts@plt>
     998:	91178260 	add	x0, x19, #0x5e0
     99c:	97ffff95 	bl	7f0 <puts@plt>
     9a0:	52800140 	mov	w0, #0xa                   	// #10
     9a4:	97ffff87 	bl	7c0 <putchar@plt>
     9a8:	b0000000 	adrp	x0, 1000 <test3_heap_large_object+0xa0>
     9ac:	91210000 	add	x0, x0, #0x840
     9b0:	97ffff90 	bl	7f0 <puts@plt>
     9b4:	b0000000 	adrp	x0, 1000 <test3_heap_large_object+0xa0>
     9b8:	9121e000 	add	x0, x0, #0x878
     9bc:	97ffff8d 	bl	7f0 <puts@plt>
     9c0:	b0000000 	adrp	x0, 1000 <test3_heap_large_object+0xa0>
     9c4:	91226000 	add	x0, x0, #0x898
     9c8:	97ffff8a 	bl	7f0 <puts@plt>
     9cc:	b0000000 	adrp	x0, 1000 <test3_heap_large_object+0xa0>
     9d0:	91234000 	add	x0, x0, #0x8d0
     9d4:	97ffff87 	bl	7f0 <puts@plt>
     9d8:	b0000000 	adrp	x0, 1000 <test3_heap_large_object+0xa0>
     9dc:	91240000 	add	x0, x0, #0x900
     9e0:	97ffff84 	bl	7f0 <puts@plt>
     9e4:	b0000000 	adrp	x0, 1000 <test3_heap_large_object+0xa0>
     9e8:	9124a000 	add	x0, x0, #0x928
     9ec:	97ffff81 	bl	7f0 <puts@plt>
     9f0:	b0000000 	adrp	x0, 1000 <test3_heap_large_object+0xa0>
     9f4:	91254000 	add	x0, x0, #0x950
     9f8:	97ffff7e 	bl	7f0 <puts@plt>
     9fc:	b0000000 	adrp	x0, 1000 <test3_heap_large_object+0xa0>
     a00:	9125e000 	add	x0, x0, #0x978
     a04:	97ffff7b 	bl	7f0 <puts@plt>
     a08:	b0000000 	adrp	x0, 1000 <test3_heap_large_object+0xa0>
     a0c:	91268000 	add	x0, x0, #0x9a0
     a10:	97ffff78 	bl	7f0 <puts@plt>
     a14:	b0000000 	adrp	x0, 1000 <test3_heap_large_object+0xa0>
     a18:	91274000 	add	x0, x0, #0x9d0
     a1c:	97ffff75 	bl	7f0 <puts@plt>
     a20:	b0000000 	adrp	x0, 1000 <test3_heap_large_object+0xa0>
     a24:	91280000 	add	x0, x0, #0xa00
     a28:	97ffff72 	bl	7f0 <puts@plt>
     a2c:	b0000000 	adrp	x0, 1000 <test3_heap_large_object+0xa0>
     a30:	91288000 	add	x0, x0, #0xa20
     a34:	97ffff6f 	bl	7f0 <puts@plt>
     a38:	b0000000 	adrp	x0, 1000 <test3_heap_large_object+0xa0>
     a3c:	9128c000 	add	x0, x0, #0xa30
     a40:	97ffff6c 	bl	7f0 <puts@plt>
     a44:	b0000000 	adrp	x0, 1000 <test3_heap_large_object+0xa0>
     a48:	91296000 	add	x0, x0, #0xa58
     a4c:	97ffff69 	bl	7f0 <puts@plt>
     a50:	b0000000 	adrp	x0, 1000 <test3_heap_large_object+0xa0>
     a54:	912a0000 	add	x0, x0, #0xa80
     a58:	97ffff66 	bl	7f0 <puts@plt>
     a5c:	b0000000 	adrp	x0, 1000 <test3_heap_large_object+0xa0>
     a60:	912b0000 	add	x0, x0, #0xac0
     a64:	97ffff63 	bl	7f0 <puts@plt>
     a68:	b0000000 	adrp	x0, 1000 <test3_heap_large_object+0xa0>
     a6c:	912c2000 	add	x0, x0, #0xb08
     a70:	97ffff60 	bl	7f0 <puts@plt>
     a74:	52800140 	mov	w0, #0xa                   	// #10
     a78:	97ffff52 	bl	7c0 <putchar@plt>
     a7c:	f94013f5 	ldr	x21, [sp, #32]
     a80:	52800000 	mov	w0, #0x0                   	// #0
     a84:	a94153f3 	ldp	x19, x20, [sp, #16]
     a88:	a8c37bfd 	ldp	x29, x30, [sp], #48
     a8c:	d65f03c0 	ret

0000000000000a90 <_start>:
     a90:	d280001d 	mov	x29, #0x0                   	// #0
     a94:	d280001e 	mov	x30, #0x0                   	// #0
     a98:	910003e0 	mov	x0, sp
     a9c:	f00000e1 	adrp	x1, 1f000 <__FRAME_END__+0x1d140>
     aa0:	91360021 	add	x1, x1, #0xd80
     aa4:	927cec1f 	and	sp, x0, #0xfffffffffffffff0
     aa8:	14000001 	b	aac <_start_c>

0000000000000aac <_start_c>:
     aac:	aa0003e2 	mov	x2, x0
     ab0:	d2800005 	mov	x5, #0x0                   	// #0
     ab4:	f00000e4 	adrp	x4, 1f000 <__FRAME_END__+0x1d140>
     ab8:	f947f884 	ldr	x4, [x4, #4080]
     abc:	f8408441 	ldr	x1, [x2], #8
     ac0:	f00000e3 	adrp	x3, 1f000 <__FRAME_END__+0x1d140>
     ac4:	f947e463 	ldr	x3, [x3, #4040]
     ac8:	f00000e0 	adrp	x0, 1f000 <__FRAME_END__+0x1d140>
     acc:	f947f400 	ldr	x0, [x0, #4072]
     ad0:	17ffff5c 	b	840 <__libc_start_main@plt>
     ad4:	d503201f 	nop
     ad8:	d503201f 	nop
     adc:	d503201f 	nop

0000000000000ae0 <deregister_tm_clones>:
     ae0:	90000100 	adrp	x0, 20000 <__dso_handle>
     ae4:	91002000 	add	x0, x0, #0x8
     ae8:	90000101 	adrp	x1, 20000 <__dso_handle>
     aec:	91002021 	add	x1, x1, #0x8
     af0:	eb00003f 	cmp	x1, x0
     af4:	540000c0 	b.eq	b0c <deregister_tm_clones+0x2c>  // b.none
     af8:	f00000e1 	adrp	x1, 1f000 <__FRAME_END__+0x1d140>
     afc:	f947f021 	ldr	x1, [x1, #4064]
     b00:	b4000061 	cbz	x1, b0c <deregister_tm_clones+0x2c>
     b04:	aa0103f0 	mov	x16, x1
     b08:	d61f0200 	br	x16
     b0c:	d65f03c0 	ret

0000000000000b10 <register_tm_clones>:
     b10:	90000100 	adrp	x0, 20000 <__dso_handle>
     b14:	91002000 	add	x0, x0, #0x8
     b18:	90000101 	adrp	x1, 20000 <__dso_handle>
     b1c:	91002021 	add	x1, x1, #0x8
     b20:	cb000021 	sub	x1, x1, x0
     b24:	d37ffc22 	lsr	x2, x1, #63
     b28:	8b810c41 	add	x1, x2, x1, asr #3
     b2c:	9341fc21 	asr	x1, x1, #1
     b30:	b40000c1 	cbz	x1, b48 <register_tm_clones+0x38>
     b34:	f00000e2 	adrp	x2, 1f000 <__FRAME_END__+0x1d140>
     b38:	f947ec42 	ldr	x2, [x2, #4056]
     b3c:	b4000062 	cbz	x2, b48 <register_tm_clones+0x38>
     b40:	aa0203f0 	mov	x16, x2
     b44:	d61f0200 	br	x16
     b48:	d65f03c0 	ret

0000000000000b4c <__do_global_dtors_aux>:
     b4c:	a9be7bfd 	stp	x29, x30, [sp, #-32]!
     b50:	910003fd 	mov	x29, sp
     b54:	f9000bf3 	str	x19, [sp, #16]
     b58:	90000113 	adrp	x19, 20000 <__dso_handle>
     b5c:	39402260 	ldrb	w0, [x19, #8]
     b60:	37000200 	tbnz	w0, #0, ba0 <__do_global_dtors_aux+0x54>
     b64:	f00000e0 	adrp	x0, 1f000 <__FRAME_END__+0x1d140>
     b68:	f947e000 	ldr	x0, [x0, #4032]
     b6c:	b4000080 	cbz	x0, b7c <__do_global_dtors_aux+0x30>
     b70:	90000100 	adrp	x0, 20000 <__dso_handle>
     b74:	f9400000 	ldr	x0, [x0]
     b78:	97ffff22 	bl	800 <__cxa_finalize@plt>
     b7c:	97ffffd9 	bl	ae0 <deregister_tm_clones>
     b80:	f00000e0 	adrp	x0, 1f000 <__FRAME_END__+0x1d140>
     b84:	f947e800 	ldr	x0, [x0, #4048]
     b88:	b4000080 	cbz	x0, b98 <__do_global_dtors_aux+0x4c>
     b8c:	b0000000 	adrp	x0, 1000 <test3_heap_large_object+0xa0>
     b90:	912fc000 	add	x0, x0, #0xbf0
     b94:	97ffff27 	bl	830 <__deregister_frame_info@plt>
     b98:	52800020 	mov	w0, #0x1                   	// #1
     b9c:	39002260 	strb	w0, [x19, #8]
     ba0:	f9400bf3 	ldr	x19, [sp, #16]
     ba4:	a8c27bfd 	ldp	x29, x30, [sp], #32
     ba8:	d65f03c0 	ret

0000000000000bac <frame_dummy>:
     bac:	f00000e0 	adrp	x0, 1f000 <__FRAME_END__+0x1d140>
     bb0:	f947fc00 	ldr	x0, [x0, #4088]
     bb4:	b4000140 	cbz	x0, bdc <frame_dummy+0x30>
     bb8:	a9bf7bfd 	stp	x29, x30, [sp, #-16]!
     bbc:	90000101 	adrp	x1, 20000 <__dso_handle>
     bc0:	b0000000 	adrp	x0, 1000 <test3_heap_large_object+0xa0>
     bc4:	910003fd 	mov	x29, sp
     bc8:	91004021 	add	x1, x1, #0x10
     bcc:	912fc000 	add	x0, x0, #0xbf0
     bd0:	97ffff20 	bl	850 <__register_frame_info@plt>
     bd4:	a8c17bfd 	ldp	x29, x30, [sp], #16
     bd8:	17ffffce 	b	b10 <register_tm_clones>
     bdc:	17ffffcd 	b	b10 <register_tm_clones>

0000000000000be0 <test1_stack_small_object>:
     be0:	a9bf7bfd 	stp	x29, x30, [sp, #-16]!
     be4:	f00000e0 	adrp	x0, 1f000 <__FRAME_END__+0x1d140>
     be8:	f947dc00 	ldr	x0, [x0, #4024]
     bec:	910003fd 	mov	x29, sp
     bf0:	d110c3ff 	sub	sp, sp, #0x430
     bf4:	f9400001 	ldr	x1, [x0]
     bf8:	f90217e1 	str	x1, [sp, #1064]
     bfc:	d2800001 	mov	x1, #0x0                   	// #0
     c00:	52800020 	mov	w0, #0x1                   	// #1
     c04:	910023e1 	add	x1, sp, #0x8
     c08:	97fffef2 	bl	7d0 <clock_gettime@plt>
     c0c:	90000103 	adrp	x3, 20000 <__dso_handle>
     c10:	52884805 	mov	w5, #0x4240                	// #16960
     c14:	91010063 	add	x3, x3, #0x40
     c18:	52800001 	mov	w1, #0x0                   	// #0
     c1c:	72a001e5 	movk	w5, #0xf, lsl #16
     c20:	3900a3e1 	strb	w1, [sp, #40]
     c24:	13087c20 	asr	w0, w1, #8
     c28:	39109fe0 	strb	w0, [sp, #1063]
     c2c:	11000421 	add	w1, w1, #0x1
     c30:	3940a3e0 	ldrb	w0, [sp, #40]
     c34:	39509fe2 	ldrb	w2, [sp, #1063]
     c38:	b9400064 	ldr	w4, [x3]
     c3c:	12001c42 	and	w2, w2, #0xff
     c40:	0b200040 	add	w0, w2, w0, uxtb
     c44:	0b040000 	add	w0, w0, w4
     c48:	b9000060 	str	w0, [x3]
     c4c:	6b05003f 	cmp	w1, w5
     c50:	54fffe81 	b.ne	c20 <test1_stack_small_object+0x40>  // b.any
     c54:	910063e1 	add	x1, sp, #0x18
     c58:	52800020 	mov	w0, #0x1                   	// #1
     c5c:	97fffedd 	bl	7d0 <clock_gettime@plt>
     c60:	a9408be1 	ldp	x1, x2, [sp, #8]
     c64:	f9400fe0 	ldr	x0, [sp, #24]
     c68:	cb010000 	sub	x0, x0, x1
     c6c:	f94013e1 	ldr	x1, [sp, #32]
     c70:	cb020021 	sub	x1, x1, x2
     c74:	d2994002 	mov	x2, #0xca00                	// #51712
     c78:	f2a77342 	movk	x2, #0x3b9a, lsl #16
     c7c:	9b020400 	madd	x0, x0, x2, x1
     c80:	f00000e1 	adrp	x1, 1f000 <__FRAME_END__+0x1d140>
     c84:	f947dc21 	ldr	x1, [x1, #4024]
     c88:	f94217e3 	ldr	x3, [sp, #1064]
     c8c:	f9400022 	ldr	x2, [x1]
     c90:	eb020063 	subs	x3, x3, x2
     c94:	d2800002 	mov	x2, #0x0                   	// #0
     c98:	54000081 	b.ne	ca8 <test1_stack_small_object+0xc8>  // b.any
     c9c:	9110c3ff 	add	sp, sp, #0x430
     ca0:	a8c17bfd 	ldp	x29, x30, [sp], #16
     ca4:	d65f03c0 	ret
     ca8:	97fffede 	bl	820 <__stack_chk_fail@plt>

0000000000000cac <test3_stack_medium_object>:
     cac:	a9bf7bfd 	stp	x29, x30, [sp, #-16]!
     cb0:	f00000e0 	adrp	x0, 1f000 <__FRAME_END__+0x1d140>
     cb4:	f947dc00 	ldr	x0, [x0, #4024]
     cb8:	910003fd 	mov	x29, sp
     cbc:	d100c3ff 	sub	sp, sp, #0x30
     cc0:	d14103ff 	sub	sp, sp, #0x40, lsl #12
     cc4:	914103e1 	add	x1, sp, #0x40, lsl #12
     cc8:	f9400002 	ldr	x2, [x0]
     ccc:	f9001422 	str	x2, [x1, #40]
     cd0:	d2800002 	mov	x2, #0x0                   	// #0
     cd4:	910023e1 	add	x1, sp, #0x8
     cd8:	52800020 	mov	w0, #0x1                   	// #1
     cdc:	97fffebd 	bl	7d0 <clock_gettime@plt>
     ce0:	90000103 	adrp	x3, 20000 <__dso_handle>
     ce4:	91010063 	add	x3, x3, #0x40
     ce8:	52800001 	mov	w1, #0x0                   	// #0
     cec:	914103e0 	add	x0, sp, #0x40, lsl #12
     cf0:	914103e2 	add	x2, sp, #0x40, lsl #12
     cf4:	3900a3e1 	strb	w1, [sp, #40]
     cf8:	11000421 	add	w1, w1, #0x1
     cfc:	39009c1f 	strb	wzr, [x0, #39]
     d00:	3940a3e0 	ldrb	w0, [sp, #40]
     d04:	39409c42 	ldrb	w2, [x2, #39]
     d08:	b9400064 	ldr	w4, [x3]
     d0c:	12001c42 	and	w2, w2, #0xff
     d10:	0b200040 	add	w0, w2, w0, uxtb
     d14:	0b040000 	add	w0, w0, w4
     d18:	b9000060 	str	w0, [x3]
     d1c:	7101903f 	cmp	w1, #0x64
     d20:	54fffe61 	b.ne	cec <test3_stack_medium_object+0x40>  // b.any
     d24:	910063e1 	add	x1, sp, #0x18
     d28:	52800020 	mov	w0, #0x1                   	// #1
     d2c:	97fffea9 	bl	7d0 <clock_gettime@plt>
     d30:	a9408be1 	ldp	x1, x2, [sp, #8]
     d34:	914103e3 	add	x3, sp, #0x40, lsl #12
     d38:	f9400fe0 	ldr	x0, [sp, #24]
     d3c:	cb010000 	sub	x0, x0, x1
     d40:	f94013e1 	ldr	x1, [sp, #32]
     d44:	cb020021 	sub	x1, x1, x2
     d48:	d2994002 	mov	x2, #0xca00                	// #51712
     d4c:	f2a77342 	movk	x2, #0x3b9a, lsl #16
     d50:	9b020400 	madd	x0, x0, x2, x1
     d54:	f00000e1 	adrp	x1, 1f000 <__FRAME_END__+0x1d140>
     d58:	f947dc21 	ldr	x1, [x1, #4024]
     d5c:	f9401464 	ldr	x4, [x3, #40]
     d60:	f9400022 	ldr	x2, [x1]
     d64:	eb020084 	subs	x4, x4, x2
     d68:	d2800002 	mov	x2, #0x0                   	// #0
     d6c:	540000a1 	b.ne	d80 <test3_stack_medium_object+0xd4>  // b.any
     d70:	9100c3ff 	add	sp, sp, #0x30
     d74:	914103ff 	add	sp, sp, #0x40, lsl #12
     d78:	a8c17bfd 	ldp	x29, x30, [sp], #16
     d7c:	d65f03c0 	ret
     d80:	97fffea8 	bl	820 <__stack_chk_fail@plt>

0000000000000d84 <test1_heap_small_object>:
     d84:	d10183ff 	sub	sp, sp, #0x60
     d88:	f00000e0 	adrp	x0, 1f000 <__FRAME_END__+0x1d140>
     d8c:	f947dc00 	ldr	x0, [x0, #4024]
     d90:	a9037bfd 	stp	x29, x30, [sp, #48]
     d94:	9100c3fd 	add	x29, sp, #0x30
     d98:	a90453f3 	stp	x19, x20, [sp, #64]
     d9c:	90000114 	adrp	x20, 20000 <__dso_handle>
     da0:	91010294 	add	x20, x20, #0x40
     da4:	f9002bf5 	str	x21, [sp, #80]
     da8:	52884815 	mov	w21, #0x4240                	// #16960
     dac:	52800013 	mov	w19, #0x0                   	// #0
     db0:	72a001f5 	movk	w21, #0xf, lsl #16
     db4:	f9400001 	ldr	x1, [x0]
     db8:	f90017e1 	str	x1, [sp, #40]
     dbc:	d2800001 	mov	x1, #0x0                   	// #0
     dc0:	52800020 	mov	w0, #0x1                   	// #1
     dc4:	910023e1 	add	x1, sp, #0x8
     dc8:	97fffe82 	bl	7d0 <clock_gettime@plt>
     dcc:	d2808000 	mov	x0, #0x400                 	// #1024
     dd0:	97fffe90 	bl	810 <malloc@plt>
     dd4:	39000013 	strb	w19, [x0]
     dd8:	13087e62 	asr	w2, w19, #8
     ddc:	390ffc02 	strb	w2, [x0, #1023]
     de0:	11000673 	add	w19, w19, #0x1
     de4:	39400002 	ldrb	w2, [x0]
     de8:	394ffc01 	ldrb	w1, [x0, #1023]
     dec:	b9400283 	ldr	w3, [x20]
     df0:	12001c21 	and	w1, w1, #0xff
     df4:	0b220021 	add	w1, w1, w2, uxtb
     df8:	0b030021 	add	w1, w1, w3
     dfc:	b9000281 	str	w1, [x20]
     e00:	97fffe98 	bl	860 <free@plt>
     e04:	6b15027f 	cmp	w19, w21
     e08:	54fffe21 	b.ne	dcc <test1_heap_small_object+0x48>  // b.any
     e0c:	910063e1 	add	x1, sp, #0x18
     e10:	52800020 	mov	w0, #0x1                   	// #1
     e14:	97fffe6f 	bl	7d0 <clock_gettime@plt>
     e18:	a9408be1 	ldp	x1, x2, [sp, #8]
     e1c:	f9400fe0 	ldr	x0, [sp, #24]
     e20:	cb010000 	sub	x0, x0, x1
     e24:	f94013e1 	ldr	x1, [sp, #32]
     e28:	cb020021 	sub	x1, x1, x2
     e2c:	d2994002 	mov	x2, #0xca00                	// #51712
     e30:	f2a77342 	movk	x2, #0x3b9a, lsl #16
     e34:	9b020400 	madd	x0, x0, x2, x1
     e38:	f00000e1 	adrp	x1, 1f000 <__FRAME_END__+0x1d140>
     e3c:	f947dc21 	ldr	x1, [x1, #4024]
     e40:	f94017e3 	ldr	x3, [sp, #40]
     e44:	f9400022 	ldr	x2, [x1]
     e48:	eb020063 	subs	x3, x3, x2
     e4c:	d2800002 	mov	x2, #0x0                   	// #0
     e50:	540000c1 	b.ne	e68 <test1_heap_small_object+0xe4>  // b.any
     e54:	f9402bf5 	ldr	x21, [sp, #80]
     e58:	a9437bfd 	ldp	x29, x30, [sp, #48]
     e5c:	a94453f3 	ldp	x19, x20, [sp, #64]
     e60:	910183ff 	add	sp, sp, #0x60
     e64:	d65f03c0 	ret
     e68:	97fffe6e 	bl	820 <__stack_chk_fail@plt>

0000000000000e6c <test2_heap_reuse>:
     e6c:	d10143ff 	sub	sp, sp, #0x50
     e70:	f00000e0 	adrp	x0, 1f000 <__FRAME_END__+0x1d140>
     e74:	f947dc00 	ldr	x0, [x0, #4024]
     e78:	a9037bfd 	stp	x29, x30, [sp, #48]
     e7c:	9100c3fd 	add	x29, sp, #0x30
     e80:	f90023f3 	str	x19, [sp, #64]
     e84:	f9400001 	ldr	x1, [x0]
     e88:	f90017e1 	str	x1, [sp, #40]
     e8c:	d2800001 	mov	x1, #0x0                   	// #0
     e90:	d2808000 	mov	x0, #0x400                 	// #1024
     e94:	97fffe5f 	bl	810 <malloc@plt>
     e98:	aa0003f3 	mov	x19, x0
     e9c:	910023e1 	add	x1, sp, #0x8
     ea0:	52800020 	mov	w0, #0x1                   	// #1
     ea4:	97fffe4b 	bl	7d0 <clock_gettime@plt>
     ea8:	90000103 	adrp	x3, 20000 <__dso_handle>
     eac:	52884805 	mov	w5, #0x4240                	// #16960
     eb0:	91010063 	add	x3, x3, #0x40
     eb4:	52800002 	mov	w2, #0x0                   	// #0
     eb8:	72a001e5 	movk	w5, #0xf, lsl #16
     ebc:	d503201f 	nop
     ec0:	39000262 	strb	w2, [x19]
     ec4:	13087c40 	asr	w0, w2, #8
     ec8:	390ffe60 	strb	w0, [x19, #1023]
     ecc:	11000442 	add	w2, w2, #0x1
     ed0:	39400261 	ldrb	w1, [x19]
     ed4:	394ffe60 	ldrb	w0, [x19, #1023]
     ed8:	b9400064 	ldr	w4, [x3]
     edc:	12001c00 	and	w0, w0, #0xff
     ee0:	0b210001 	add	w1, w0, w1, uxtb
     ee4:	0b040021 	add	w1, w1, w4
     ee8:	b9000061 	str	w1, [x3]
     eec:	6b05005f 	cmp	w2, w5
     ef0:	54fffe81 	b.ne	ec0 <test2_heap_reuse+0x54>  // b.any
     ef4:	910063e1 	add	x1, sp, #0x18
     ef8:	52800020 	mov	w0, #0x1                   	// #1
     efc:	97fffe35 	bl	7d0 <clock_gettime@plt>
     f00:	aa1303e0 	mov	x0, x19
     f04:	97fffe57 	bl	860 <free@plt>
     f08:	a9408be1 	ldp	x1, x2, [sp, #8]
     f0c:	f9400fe0 	ldr	x0, [sp, #24]
     f10:	cb010000 	sub	x0, x0, x1
     f14:	f94013e1 	ldr	x1, [sp, #32]
     f18:	cb020021 	sub	x1, x1, x2
     f1c:	d2994002 	mov	x2, #0xca00                	// #51712
     f20:	f2a77342 	movk	x2, #0x3b9a, lsl #16
     f24:	9b020400 	madd	x0, x0, x2, x1
     f28:	f00000e1 	adrp	x1, 1f000 <__FRAME_END__+0x1d140>
     f2c:	f947dc21 	ldr	x1, [x1, #4024]
     f30:	f94017e3 	ldr	x3, [sp, #40]
     f34:	f9400022 	ldr	x2, [x1]
     f38:	eb020063 	subs	x3, x3, x2
     f3c:	d2800002 	mov	x2, #0x0                   	// #0
     f40:	540000a1 	b.ne	f54 <test2_heap_reuse+0xe8>  // b.any
     f44:	f94023f3 	ldr	x19, [sp, #64]
     f48:	a9437bfd 	ldp	x29, x30, [sp, #48]
     f4c:	910143ff 	add	sp, sp, #0x50
     f50:	d65f03c0 	ret
     f54:	97fffe33 	bl	820 <__stack_chk_fail@plt>
     f58:	d503201f 	nop
     f5c:	d503201f 	nop

0000000000000f60 <test3_heap_large_object>:
     f60:	d10143ff 	sub	sp, sp, #0x50
     f64:	f00000e0 	adrp	x0, 1f000 <__FRAME_END__+0x1d140>
     f68:	f947dc00 	ldr	x0, [x0, #4024]
     f6c:	a9037bfd 	stp	x29, x30, [sp, #48]
     f70:	9100c3fd 	add	x29, sp, #0x30
     f74:	a90453f3 	stp	x19, x20, [sp, #64]
     f78:	90000114 	adrp	x20, 20000 <__dso_handle>
     f7c:	91010294 	add	x20, x20, #0x40
     f80:	52800013 	mov	w19, #0x0                   	// #0
     f84:	f9400001 	ldr	x1, [x0]
     f88:	f90017e1 	str	x1, [sp, #40]
     f8c:	d2800001 	mov	x1, #0x0                   	// #0
     f90:	910023e1 	add	x1, sp, #0x8
     f94:	52800020 	mov	w0, #0x1                   	// #1
     f98:	97fffe0e 	bl	7d0 <clock_gettime@plt>
     f9c:	d503201f 	nop
     fa0:	d2a00200 	mov	x0, #0x100000              	// #1048576
     fa4:	97fffe1b 	bl	810 <malloc@plt>
     fa8:	b4000180 	cbz	x0, fd8 <test3_heap_large_object+0x78>
     fac:	9143fc02 	add	x2, x0, #0xff, lsl #12
     fb0:	39000013 	strb	w19, [x0]
     fb4:	393ffc5f 	strb	wzr, [x2, #4095]
     fb8:	39400001 	ldrb	w1, [x0]
     fbc:	397ffc42 	ldrb	w2, [x2, #4095]
     fc0:	b9400283 	ldr	w3, [x20]
     fc4:	12001c42 	and	w2, w2, #0xff
     fc8:	0b210041 	add	w1, w2, w1, uxtb
     fcc:	0b030021 	add	w1, w1, w3
     fd0:	b9000281 	str	w1, [x20]
     fd4:	97fffe23 	bl	860 <free@plt>
     fd8:	11000673 	add	w19, w19, #0x1
     fdc:	7101927f 	cmp	w19, #0x64
     fe0:	54fffe01 	b.ne	fa0 <test3_heap_large_object+0x40>  // b.any
     fe4:	910063e1 	add	x1, sp, #0x18
     fe8:	52800020 	mov	w0, #0x1                   	// #1
     fec:	97fffdf9 	bl	7d0 <clock_gettime@plt>
     ff0:	a9408be1 	ldp	x1, x2, [sp, #8]
     ff4:	f9400fe0 	ldr	x0, [sp, #24]
     ff8:	cb010000 	sub	x0, x0, x1
     ffc:	f94013e1 	ldr	x1, [sp, #32]
    1000:	cb020021 	sub	x1, x1, x2
    1004:	d2994002 	mov	x2, #0xca00                	// #51712
    1008:	f2a77342 	movk	x2, #0x3b9a, lsl #16
    100c:	9b020400 	madd	x0, x0, x2, x1
    1010:	d00000e1 	adrp	x1, 1f000 <__FRAME_END__+0x1d140>
    1014:	f947dc21 	ldr	x1, [x1, #4024]
    1018:	f94017e3 	ldr	x3, [sp, #40]
    101c:	f9400022 	ldr	x2, [x1]
    1020:	eb020063 	subs	x3, x3, x2
    1024:	d2800002 	mov	x2, #0x0                   	// #0
    1028:	540000a1 	b.ne	103c <test3_heap_large_object+0xdc>  // b.any
    102c:	a9437bfd 	ldp	x29, x30, [sp, #48]
    1030:	a94453f3 	ldp	x19, x20, [sp, #64]
    1034:	910143ff 	add	sp, sp, #0x50
    1038:	d65f03c0 	ret
    103c:	97fffdf9 	bl	820 <__stack_chk_fail@plt>

0000000000001040 <test4_heap_with_pool>:
    1040:	d10143ff 	sub	sp, sp, #0x50
    1044:	d00000e0 	adrp	x0, 1f000 <__FRAME_END__+0x1d140>
    1048:	f947dc00 	ldr	x0, [x0, #4024]
    104c:	a9037bfd 	stp	x29, x30, [sp, #48]
    1050:	9100c3fd 	add	x29, sp, #0x30
    1054:	f90023f3 	str	x19, [sp, #64]
    1058:	f9400001 	ldr	x1, [x0]
    105c:	f90017e1 	str	x1, [sp, #40]
    1060:	d2800001 	mov	x1, #0x0                   	// #0
    1064:	d2800400 	mov	x0, #0x20                  	// #32
    1068:	97fffdea 	bl	810 <malloc@plt>
    106c:	aa0003f3 	mov	x19, x0
    1070:	d2940000 	mov	x0, #0xa000                	// #40960
    1074:	f2a001e0 	movk	x0, #0xf, lsl #16
    1078:	97fffde6 	bl	810 <malloc@plt>
    107c:	f9000260 	str	x0, [x19]
    1080:	90000000 	adrp	x0, 1000 <test3_heap_large_object+0xa0>
    1084:	f9000e7f 	str	xzr, [x19, #24]
    1088:	910023e1 	add	x1, sp, #0x8
    108c:	3dc2d01f 	ldr	q31, [x0, #2880]
    1090:	52800020 	mov	w0, #0x1                   	// #1
    1094:	3c80827f 	stur	q31, [x19, #8]
    1098:	97fffdce 	bl	7d0 <clock_gettime@plt>
    109c:	f00000e4 	adrp	x4, 20000 <__dso_handle>
    10a0:	52884806 	mov	w6, #0x4240                	// #16960
    10a4:	91010084 	add	x4, x4, #0x40
    10a8:	52800000 	mov	w0, #0x0                   	// #0
    10ac:	72a001e6 	movk	w6, #0xf, lsl #16
    10b0:	a9410662 	ldp	x2, x1, [x19, #16]
    10b4:	91000425 	add	x5, x1, #0x1
    10b8:	eb02003f 	cmp	x1, x2
    10bc:	54000063 	b.cc	10c8 <test4_heap_with_pool+0x88>  // b.lo, b.ul, b.last
    10c0:	d2800025 	mov	x5, #0x1                   	// #1
    10c4:	d2800001 	mov	x1, #0x0                   	// #0
    10c8:	a9400e62 	ldp	x2, x3, [x19]
    10cc:	f9000e65 	str	x5, [x19, #24]
    10d0:	13087c05 	asr	w5, w0, #8
    10d4:	9b037c21 	mul	x1, x1, x3
    10d8:	8b010043 	add	x3, x2, x1
    10dc:	38216840 	strb	w0, [x2, x1]
    10e0:	11000400 	add	w0, w0, #0x1
    10e4:	390ffc65 	strb	w5, [x3, #1023]
    10e8:	38616841 	ldrb	w1, [x2, x1]
    10ec:	394ffc62 	ldrb	w2, [x3, #1023]
    10f0:	b9400083 	ldr	w3, [x4]
    10f4:	12001c42 	and	w2, w2, #0xff
    10f8:	0b210041 	add	w1, w2, w1, uxtb
    10fc:	0b030021 	add	w1, w1, w3
    1100:	b9000081 	str	w1, [x4]
    1104:	6b06001f 	cmp	w0, w6
    1108:	54fffd41 	b.ne	10b0 <test4_heap_with_pool+0x70>  // b.any
    110c:	910063e1 	add	x1, sp, #0x18
    1110:	52800020 	mov	w0, #0x1                   	// #1
    1114:	97fffdaf 	bl	7d0 <clock_gettime@plt>
    1118:	f9400260 	ldr	x0, [x19]
    111c:	97fffdd1 	bl	860 <free@plt>
    1120:	aa1303e0 	mov	x0, x19
    1124:	97fffdcf 	bl	860 <free@plt>
    1128:	a9408be1 	ldp	x1, x2, [sp, #8]
    112c:	f9400fe0 	ldr	x0, [sp, #24]
    1130:	cb010000 	sub	x0, x0, x1
    1134:	f94013e1 	ldr	x1, [sp, #32]
    1138:	cb020021 	sub	x1, x1, x2
    113c:	d2994002 	mov	x2, #0xca00                	// #51712
    1140:	f2a77342 	movk	x2, #0x3b9a, lsl #16
    1144:	9b020400 	madd	x0, x0, x2, x1
    1148:	d00000e1 	adrp	x1, 1f000 <__FRAME_END__+0x1d140>
    114c:	f947dc21 	ldr	x1, [x1, #4024]
    1150:	f94017e3 	ldr	x3, [sp, #40]
    1154:	f9400022 	ldr	x2, [x1]
    1158:	eb020063 	subs	x3, x3, x2
    115c:	d2800002 	mov	x2, #0x0                   	// #0
    1160:	540000a1 	b.ne	1174 <test4_heap_with_pool+0x134>  // b.any
    1164:	f94023f3 	ldr	x19, [sp, #64]
    1168:	a9437bfd 	ldp	x29, x30, [sp, #48]
    116c:	910143ff 	add	sp, sp, #0x50
    1170:	d65f03c0 	ret
    1174:	97fffdab 	bl	820 <__stack_chk_fail@plt>
    1178:	d503201f 	nop
    117c:	d503201f 	nop

0000000000001180 <process_with_stack_buffer>:
    1180:	a9bf7bfd 	stp	x29, x30, [sp, #-16]!
    1184:	d00000e1 	adrp	x1, 1f000 <__FRAME_END__+0x1d140>
    1188:	f947dc21 	ldr	x1, [x1, #4024]
    118c:	910003fd 	mov	x29, sp
    1190:	d11043ff 	sub	sp, sp, #0x410
    1194:	f9400022 	ldr	x2, [x1]
    1198:	f90207e2 	str	x2, [sp, #1032]
    119c:	d2800002 	mov	x2, #0x0                   	// #0
    11a0:	f00000e2 	adrp	x2, 20000 <__dso_handle>
    11a4:	390023e0 	strb	w0, [sp, #8]
    11a8:	13087c00 	asr	w0, w0, #8
    11ac:	39101fe0 	strb	w0, [sp, #1031]
    11b0:	394023e0 	ldrb	w0, [sp, #8]
    11b4:	39501fe1 	ldrb	w1, [sp, #1031]
    11b8:	b9404043 	ldr	w3, [x2, #64]
    11bc:	12001c21 	and	w1, w1, #0xff
    11c0:	0b200020 	add	w0, w1, w0, uxtb
    11c4:	0b030000 	add	w0, w0, w3
    11c8:	b9004040 	str	w0, [x2, #64]
    11cc:	d00000e0 	adrp	x0, 1f000 <__FRAME_END__+0x1d140>
    11d0:	f947dc00 	ldr	x0, [x0, #4024]
    11d4:	f94207e2 	ldr	x2, [sp, #1032]
    11d8:	f9400001 	ldr	x1, [x0]
    11dc:	eb010042 	subs	x2, x2, x1
    11e0:	d2800001 	mov	x1, #0x0                   	// #0
    11e4:	54000081 	b.ne	11f4 <process_with_stack_buffer+0x74>  // b.any
    11e8:	911043ff 	add	sp, sp, #0x410
    11ec:	a8c17bfd 	ldp	x29, x30, [sp], #16
    11f0:	d65f03c0 	ret
    11f4:	97fffd8b 	bl	820 <__stack_chk_fail@plt>
    11f8:	d503201f 	nop
    11fc:	d503201f 	nop

0000000000001200 <test2_stack_with_function_call>:
    1200:	d10143ff 	sub	sp, sp, #0x50
    1204:	d00000e0 	adrp	x0, 1f000 <__FRAME_END__+0x1d140>
    1208:	f947dc00 	ldr	x0, [x0, #4024]
    120c:	a9037bfd 	stp	x29, x30, [sp, #48]
    1210:	9100c3fd 	add	x29, sp, #0x30
    1214:	a90453f3 	stp	x19, x20, [sp, #64]
    1218:	52884814 	mov	w20, #0x4240                	// #16960
    121c:	52800013 	mov	w19, #0x0                   	// #0
    1220:	72a001f4 	movk	w20, #0xf, lsl #16
    1224:	f9400001 	ldr	x1, [x0]
    1228:	f90017e1 	str	x1, [sp, #40]
    122c:	d2800001 	mov	x1, #0x0                   	// #0
    1230:	910023e1 	add	x1, sp, #0x8
    1234:	52800020 	mov	w0, #0x1                   	// #1
    1238:	97fffd66 	bl	7d0 <clock_gettime@plt>
    123c:	d503201f 	nop
    1240:	2a1303e0 	mov	w0, w19
    1244:	11000673 	add	w19, w19, #0x1
    1248:	97ffffce 	bl	1180 <process_with_stack_buffer>
    124c:	6b14027f 	cmp	w19, w20
    1250:	54ffff81 	b.ne	1240 <test2_stack_with_function_call+0x40>  // b.any
    1254:	910063e1 	add	x1, sp, #0x18
    1258:	52800020 	mov	w0, #0x1                   	// #1
    125c:	97fffd5d 	bl	7d0 <clock_gettime@plt>
    1260:	a9408be1 	ldp	x1, x2, [sp, #8]
    1264:	f9400fe0 	ldr	x0, [sp, #24]
    1268:	cb010000 	sub	x0, x0, x1
    126c:	f94013e1 	ldr	x1, [sp, #32]
    1270:	cb020021 	sub	x1, x1, x2
    1274:	d2994002 	mov	x2, #0xca00                	// #51712
    1278:	f2a77342 	movk	x2, #0x3b9a, lsl #16
    127c:	9b020400 	madd	x0, x0, x2, x1
    1280:	d00000e1 	adrp	x1, 1f000 <__FRAME_END__+0x1d140>
    1284:	f947dc21 	ldr	x1, [x1, #4024]
    1288:	f94017e3 	ldr	x3, [sp, #40]
    128c:	f9400022 	ldr	x2, [x1]
    1290:	eb020063 	subs	x3, x3, x2
    1294:	d2800002 	mov	x2, #0x0                   	// #0
    1298:	540000a1 	b.ne	12ac <test2_stack_with_function_call+0xac>  // b.any
    129c:	a9437bfd 	ldp	x29, x30, [sp, #48]
    12a0:	a94453f3 	ldp	x19, x20, [sp, #64]
    12a4:	910143ff 	add	sp, sp, #0x50
    12a8:	d65f03c0 	ret
    12ac:	97fffd5d 	bl	820 <__stack_chk_fail@plt>

00000000000012b0 <pool_create>:
    12b0:	a9bd7bfd 	stp	x29, x30, [sp, #-48]!
    12b4:	910003fd 	mov	x29, sp
    12b8:	a90153f3 	stp	x19, x20, [sp, #16]
    12bc:	aa0103f4 	mov	x20, x1
    12c0:	f90013f5 	str	x21, [sp, #32]
    12c4:	aa0003f5 	mov	x21, x0
    12c8:	d2800400 	mov	x0, #0x20                  	// #32
    12cc:	97fffd51 	bl	810 <malloc@plt>
    12d0:	aa0003f3 	mov	x19, x0
    12d4:	9b147ea0 	mul	x0, x21, x20
    12d8:	97fffd4e 	bl	810 <malloc@plt>
    12dc:	a9005660 	stp	x0, x21, [x19]
    12e0:	aa1303e0 	mov	x0, x19
    12e4:	a9017e74 	stp	x20, xzr, [x19, #16]
    12e8:	f94013f5 	ldr	x21, [sp, #32]
    12ec:	a94153f3 	ldp	x19, x20, [sp, #16]
    12f0:	a8c37bfd 	ldp	x29, x30, [sp], #48
    12f4:	d65f03c0 	ret
    12f8:	d503201f 	nop
    12fc:	d503201f 	nop

0000000000001300 <pool_alloc>:
    1300:	a9410402 	ldp	x2, x1, [x0, #16]
    1304:	91000424 	add	x4, x1, #0x1
    1308:	eb02003f 	cmp	x1, x2
    130c:	54000063 	b.cc	1318 <pool_alloc+0x18>  // b.lo, b.ul, b.last
    1310:	d2800024 	mov	x4, #0x1                   	// #1
    1314:	d2800001 	mov	x1, #0x0                   	// #0
    1318:	a9400c02 	ldp	x2, x3, [x0]
    131c:	f9000c04 	str	x4, [x0, #24]
    1320:	9b030820 	madd	x0, x1, x3, x2
    1324:	d65f03c0 	ret

0000000000001328 <pool_destroy>:
    1328:	a9be7bfd 	stp	x29, x30, [sp, #-32]!
    132c:	910003fd 	mov	x29, sp
    1330:	f9000bf3 	str	x19, [sp, #16]
    1334:	aa0003f3 	mov	x19, x0
    1338:	f9400000 	ldr	x0, [x0]
    133c:	97fffd49 	bl	860 <free@plt>
    1340:	aa1303e0 	mov	x0, x19
    1344:	f9400bf3 	ldr	x19, [sp, #16]
    1348:	a8c27bfd 	ldp	x29, x30, [sp], #32
    134c:	17fffd45 	b	860 <free@plt>

0000000000001350 <print_result>:
    1350:	9e630020 	ucvtf	d0, x1
    1354:	1e620041 	scvtf	d1, w2
    1358:	d2d09001 	mov	x1, #0x848000000000        	// #145685290680320
    135c:	f2e825c1 	movk	x1, #0x412e, lsl #48
    1360:	9e67003f 	fmov	d31, x1
    1364:	aa0003e1 	mov	x1, x0
    1368:	90000000 	adrp	x0, 1000 <test3_heap_large_object+0xa0>
    136c:	1e611801 	fdiv	d1, d0, d1
    1370:	91134000 	add	x0, x0, #0x4d0
    1374:	1e7f1800 	fdiv	d0, d0, d31
    1378:	17fffd1a 	b	7e0 <printf@plt>
    137c:	d503201f 	nop

0000000000001380 <run_test>:
    1380:	a9ba7bfd 	stp	x29, x30, [sp, #-96]!
    1384:	910003fd 	mov	x29, sp
    1388:	f90013f5 	str	x21, [sp, #32]
    138c:	aa0103f5 	mov	x21, x1
    1390:	aa0003e1 	mov	x1, x0
    1394:	90000000 	adrp	x0, 1000 <test3_heap_large_object+0xa0>
    1398:	91140000 	add	x0, x0, #0x500
    139c:	a90153f3 	stp	x19, x20, [sp, #16]
    13a0:	2a0503f3 	mov	w19, w5
    13a4:	aa0303f4 	mov	x20, x3
    13a8:	6d0337ec 	stp	d12, d13, [sp, #48]
    13ac:	6d043fee 	stp	d14, d15, [sp, #64]
    13b0:	a9050be4 	stp	x4, x2, [sp, #80]
    13b4:	97fffd0b 	bl	7e0 <printf@plt>
    13b8:	90000000 	adrp	x0, 1000 <test3_heap_large_object+0xa0>
    13bc:	91142000 	add	x0, x0, #0x508
    13c0:	97fffd0c 	bl	7f0 <puts@plt>
    13c4:	f9402fe2 	ldr	x2, [sp, #88]
    13c8:	d63f0040 	blr	x2
    13cc:	9e63000e 	ucvtf	d14, x0
    13d0:	1e62026c 	scvtf	d12, w19
    13d4:	d2d09000 	mov	x0, #0x848000000000        	// #145685290680320
    13d8:	f2e825c0 	movk	x0, #0x412e, lsl #48
    13dc:	9e67000d 	fmov	d13, x0
    13e0:	aa1503e1 	mov	x1, x21
    13e4:	90000013 	adrp	x19, 1000 <test3_heap_large_object+0xa0>
    13e8:	1e6d19c0 	fdiv	d0, d14, d13
    13ec:	91134260 	add	x0, x19, #0x4d0
    13f0:	1e6c19c1 	fdiv	d1, d14, d12
    13f4:	97fffcfb 	bl	7e0 <printf@plt>
    13f8:	f9402be4 	ldr	x4, [sp, #80]
    13fc:	d63f0080 	blr	x4
    1400:	9e63000f 	ucvtf	d15, x0
    1404:	aa1403e1 	mov	x1, x20
    1408:	91134260 	add	x0, x19, #0x4d0
    140c:	1e6d19e0 	fdiv	d0, d15, d13
    1410:	1e6c19e1 	fdiv	d1, d15, d12
    1414:	97fffcf3 	bl	7e0 <printf@plt>
    1418:	1e6e19ef 	fdiv	d15, d15, d14
    141c:	90000001 	adrp	x1, 1000 <test3_heap_large_object+0xa0>
    1420:	90000000 	adrp	x0, 1000 <test3_heap_large_object+0xa0>
    1424:	9114e021 	add	x1, x1, #0x538
    1428:	91152000 	add	x0, x0, #0x548
    142c:	1e6041e0 	fmov	d0, d15
    1430:	97fffcec 	bl	7e0 <printf@plt>
    1434:	1e6e101f 	fmov	d31, #1.000000000000000000e+00
    1438:	1e7f21f0 	fcmpe	d15, d31
    143c:	54000324 	b.mi	14a0 <run_test+0x120>  // b.first
    1440:	1e60101e 	fmov	d30, #2.000000000000000000e+00
    1444:	1e7e21f0 	fcmpe	d15, d30
    1448:	54000144 	b.mi	1470 <run_test+0xf0>  // b.first
    144c:	f94013f5 	ldr	x21, [sp, #32]
    1450:	1e6041e0 	fmov	d0, d15
    1454:	a94153f3 	ldp	x19, x20, [sp, #16]
    1458:	90000000 	adrp	x0, 1000 <test3_heap_large_object+0xa0>
    145c:	6d4337ec 	ldp	d12, d13, [sp, #48]
    1460:	9116c000 	add	x0, x0, #0x5b0
    1464:	6d443fee 	ldp	d14, d15, [sp, #64]
    1468:	a8c67bfd 	ldp	x29, x30, [sp], #96
    146c:	17fffcdd 	b	7e0 <printf@plt>
    1470:	1e7f39e0 	fsub	d0, d15, d31
    1474:	d2e80b20 	mov	x0, #0x4059000000000000    	// #4636737291354636288
    1478:	f94013f5 	ldr	x21, [sp, #32]
    147c:	9e67001f 	fmov	d31, x0
    1480:	a94153f3 	ldp	x19, x20, [sp, #16]
    1484:	1e7f0800 	fmul	d0, d0, d31
    1488:	6d4337ec 	ldp	d12, d13, [sp, #48]
    148c:	90000000 	adrp	x0, 1000 <test3_heap_large_object+0xa0>
    1490:	6d443fee 	ldp	d14, d15, [sp, #64]
    1494:	91162000 	add	x0, x0, #0x588
    1498:	a8c67bfd 	ldp	x29, x30, [sp], #96
    149c:	17fffcd1 	b	7e0 <printf@plt>
    14a0:	f94013f5 	ldr	x21, [sp, #32]
    14a4:	90000000 	adrp	x0, 1000 <test3_heap_large_object+0xa0>
    14a8:	a94153f3 	ldp	x19, x20, [sp, #16]
    14ac:	91156000 	add	x0, x0, #0x558
    14b0:	6d4337ec 	ldp	d12, d13, [sp, #48]
    14b4:	6d443fee 	ldp	d14, d15, [sp, #64]
    14b8:	a8c67bfd 	ldp	x29, x30, [sp], #96
    14bc:	17fffccd 	b	7f0 <puts@plt>

Disassembly of section .fini:

00000000000014c0 <_fini>:
    14c0:	a9bf7bfd 	stp	x29, x30, [sp, #-16]!
    14c4:	910003fd 	mov	x29, sp
    14c8:	a8c17bfd 	ldp	x29, x30, [sp], #16
    14cc:	d65f03c0 	ret
